Certificate:
    Data:
        Version: 3 (0x2)
        Serial Number: 4096 (0x1000)
        Signature Algorithm: sha1WithRSAEncryption
        Issuer: C=SE, ST=Some-State, O=Ericsson, OU=RCS
        Validity
            Not Before: Dec  2 14:16:27 2013 GMT
            Not After : Dec  2 14:16:27 2014 GMT
        Subject: C=SE, O=Ericsson, CN=certm_SUITE.ericsson.com
        Subject Public Key Info:
            Public Key Algorithm: rsaEncryption
            RSA Public Key: (2048 bit)
                Modulus (2048 bit):
                    00:a3:44:46:8e:8c:c3:52:7f:fb:98:d2:22:5b:1e:
                    a0:53:ac:e7:3b:66:8c:e5:9b:de:b3:aa:e4:de:7f:
                    87:83:cf:59:83:2e:5d:4a:40:be:1b:54:6e:23:88:
                    45:e0:9e:09:68:af:e9:7d:c2:0b:7b:8b:20:19:17:
                    55:11:eb:f8:0c:73:e8:76:43:98:a8:1f:c6:1a:74:
                    0e:5c:89:61:fd:7d:dc:f2:73:84:16:e7:8d:1e:c9:
                    e7:04:fb:84:2c:cd:08:04:2a:6e:2c:7f:38:49:d3:
                    39:ab:48:d9:70:e2:5d:cb:01:ce:98:7b:62:d3:5f:
                    fa:56:6b:54:1b:d8:e1:27:26:bd:ab:d0:b5:0c:8c:
                    3d:11:72:cc:a9:d0:3e:5d:c8:d6:12:11:47:7e:ea:
                    cf:af:db:5b:b8:9f:9e:27:21:a5:5f:7f:3e:47:bd:
                    fc:ff:3f:f7:0f:52:f5:be:f6:b8:b2:4b:29:a6:9b:
                    b8:1d:c0:fb:3f:99:d5:32:65:a6:fc:e1:cc:2e:5b:
                    d3:8d:0e:eb:42:55:f7:c5:d9:84:32:32:ad:c3:6d:
                    aa:86:ee:a1:ba:b6:e1:8a:47:fc:28:62:32:76:ca:
                    bf:b5:5f:ff:3b:38:51:d5:70:69:10:d9:6a:13:17:
                    92:33:16:cf:f5:ec:23:32:31:11:43:2a:16:b5:ad:
                    cc:5f
                Exponent: 65537 (0x10001)
        X509v3 extensions:
            X509v3 Basic Constraints:
                CA:FALSE
            Netscape Comment:
                OpenSSL Generated Certificate
            X509v3 Subject Key Identifier:
                6E:4C:0E:36:40:6A:F0:7F:91:2B:09:3D:A9:27:E0:BC:A8:AC:A5:14
            X509v3 Authority Key Identifier:
                keyid:A4:58:8D:11:94:A1:33:6F:04:CE:AD:1C:DA:52:83:56:D4:2A:73:BC

    Signature Algorithm: sha1WithRSAEncryption
        1e:c3:19:a2:83:07:88:21:55:4e:50:33:40:0e:fa:0f:1e:02:
        73:ee:eb:49:ae:35:2f:f8:5f:28:d6:f4:c0:28:ac:49:b0:1a:
        fa:20:a4:e7:e0:dd:6b:fc:f5:97:df:f7:ac:5d:e0:e9:a6:58:
        40:87:3f:83:f0:56:f6:b2:3e:da:ea:29:9a:9c:4e:76:13:33:
        0b:8f:d2:6d:c2:be:e1:94:4e:5b:18:f2:ba:93:d1:3b:f2:23:
        ab:b2:00:13:8f:9a:30:21:60:24:87:f2:99:81:41:8a:8e:8b:
        eb:a1:f9:50:14:b1:9f:e7:36:6a:6b:27:66:eb:ed:7c:29:be:
        c3:84:f9:7a:18:8b:22:8d:8d:7a:cd:e1:ed:bb:90:c1:30:72:
        c1:74:33:8c:ec:d2:0a:f3:fa:61:0f:9a:e7:8c:be:df:d0:57:
        7f:ea:82:cb:79:15:e0:6c:b1:0d:d5:03:ca:98:47:5a:73:42:
        db:87:0a:dc:7b:31:52:f5:44:14:e4:68:9d:ea:df:ba:a9:24:
        08:f4:d5:44:8b:7f:e5:d3:16:c1:be:63:fe:06:f9:29:84:86:
        eb:59:b2:58:77:aa:98:f9:d0:f3:ea:a3:fe:ae:0f:ee:01:33:
        25:23:6d:76:96:ce:fc:02:bf:c7:84:2e:50:17:d2:4e:1a:a7:
        f2:26:37:c3
-----BEGIN CERTIFICATE-----
MIIDfTCCAmWgAwIBAgICEAAwDQYJKoZIhvcNAQEFBQAwQzELMAkGA1UEBhMCU0Ux
EzARBgNVBAgTClNvbWUtU3RhdGUxETAPBgNVBAoTCEVyaWNzc29uMQwwCgYDVQQL
EwNSQ1MwHhcNMTMxMjAyMTQxNjI3WhcNMTQxMjAyMTQxNjI3WjBDMQswCQYDVQQG
EwJTRTERMA8GA1UECgwIRXJpY3Nzb24xITAfBgNVBAMMGGNlcnRtX1NVSVRFLmVy
aWNzc29uLmNvbTCCASIwDQYJKoZIhvcNAQEBBQADggEPADCCAQoCggEBAKNERo6M
w1J/+5jSIlseoFOs5ztmjOWb3rOq5N5/h4PPWYMuXUpAvhtUbiOIReCeCWiv6X3C
C3uLIBkXVRHr+Axz6HZDmKgfxhp0DlyJYf193PJzhBbnjR7J5wT7hCzNCAQqbix/
OEnTOatI2XDiXcsBzph7YtNf+lZrVBvY4ScmvavQtQyMPRFyzKnQPl3I1hIRR37q
z6/bW7ifnichpV9/Pke9/P8/9w9S9b72uLJLKaabuB3A+z+Z1TJlpvzhzC5b040O
60JV98XZhDIyrcNtqobuobq24YpH/ChiMnbKv7Vf/zs4UdVwaRDZahMXkjMWz/Xs
IzIxEUMqFrWtzF8CAwEAAaN7MHkwCQYDVR0TBAIwADAsBglghkgBhvhCAQ0EHxYd
T3BlblNTTCBHZW5lcmF0ZWQgQ2VydGlmaWNhdGUwHQYDVR0OBBYEFG5MDjZAavB/
kSsJPakn4LyorKUUMB8GA1UdIwQYMBaAFKRYjRGUoTNvBM6tHNpSg1bUKnO8MA0G
CSqGSIb3DQEBBQUAA4IBAQAewxmigweIIVVOUDNADvoPHgJz7utJrjUv+F8o1vTA
KKxJsBr6IKTn4N1r/PWX3/esXeDpplhAhz+D8Fb2sj7a6imanE52EzMLj9Jtwr7h
lE5bGPK6k9E78iOrsgATj5owIWAkh/KZgUGKjovroflQFLGf5zZqaydm6+18Kb7D
hPl6GIsijY16zeHtu5DBMHLBdDOM7NIK8/phD5rnjL7f0Fd/6oLLeRXgbLEN1QPK
mEdac0LbhwrcezFS9UQU5Gid6t+6qSQI9NVEi3/l0xbBvmP+BvkphIbrWbJYd6qY
+dDz6qP+rg/uATMlI212ls78Ar/HhC5QF9JOGqfyJjfD
-----END CERTIFICATE-----
