Certificate:
    Data:
        Version: 3 (0x2)
        Serial Number: 16 (0x10)
        Signature Algorithm: sha1WithRSAEncryption
        Issuer: C=se, ST=stockholm, L=kista, O=macro phage inc, OU=du, CN=etxlg's alternate ca
        Validity
            Not Before: Mar  2 16:34:40 2015 GMT
            Not After : Nov  8 16:34:40 2028 GMT
        Subject: C=se, ST=stockholm, O=macro phage inc, OU=duh, CN=expert
        Subject Public Key Info:
            Public Key Algorithm: rsaEncryption
                Public-Key: (1024 bit)
                Modulus:
                    00:b1:2d:1f:53:50:7f:31:60:ed:6c:3e:6f:39:08:
                    d9:8d:7d:fc:b8:91:bb:0b:d2:24:7a:95:a7:02:4a:
                    68:d1:1d:d6:d0:7a:7e:24:d0:bb:de:ab:2b:9f:52:
                    c6:21:11:8a:7a:dd:db:26:16:be:2b:f3:36:ec:14:
                    3e:30:fa:35:32:db:b9:da:8f:41:60:0e:89:3e:fa:
                    78:f2:6d:35:2f:c8:49:23:01:44:29:90:7c:6c:7e:
                    ed:62:4e:41:a1:55:3c:4f:2a:ba:e8:bd:e8:7f:c6:
                    a6:f7:3b:e0:1b:f6:1c:e9:50:d4:0a:49:8a:8b:4d:
                    8c:e3:09:1b:99:f2:3b:4c:8d
                Exponent: 65537 (0x10001)
        X509v3 extensions:
            X509v3 Basic Constraints: 
                CA:FALSE
            Netscape Comment: 
                OpenSSL Generated Certificate
            X509v3 Subject Key Identifier: 
                AA:2D:B6:15:FD:83:BD:2C:3F:26:A2:4A:85:7A:29:1B:D4:6F:F6:AA
            X509v3 Authority Key Identifier: 
                keyid:DF:6D:9B:F1:64:17:0E:47:D3:C5:7E:4E:7A:91:E8:F4:64:BC:00:AC

    Signature Algorithm: sha1WithRSAEncryption
        60:01:5e:ce:ab:b5:b3:16:fb:61:e8:5c:96:2c:4c:ca:74:fe:
        37:6e:29:84:58:b5:43:41:97:66:cb:58:2d:7e:0e:8b:00:ee:
        fb:71:f0:6f:ac:ec:91:bc:36:a3:fe:82:30:ae:5f:e0:be:3f:
        f2:e2:5e:98:59:cc:5a:0f:15:d0:69:a6:86:71:11:02:0a:8a:
        84:8a:1c:6c:f1:35:ae:d2:16:20:9c:a1:a8:85:9b:4c:2e:f1:
        ce:b3:d4:0b:7f:71:c7:1e:43:3f:a9:a7:13:60:89:88:36:4c:
        32:f6:a4:37:86:17:2b:39:09:4b:7c:bd:ac:80:85:2d:95:72:
        5c:e0:84:ee:b9:da:2e:ea:ad:fb:00:d0:a5:3b:0d:f6:08:71:
        88:c3:f5:b3:c3:9b:06:2b:bf:32:23:e3:ea:17:d4:b5:4e:0e:
        f8:00:c6:84:da:3d:fe:72:1c:4b:13:63:bd:57:ae:04:58:d7:
        9c:5b:22:a8:0f:b8:07:d1:b7:a4:a3:c4:1e:68:ca:a3:cf:f2:
        67:3e:c0:36:b7:7d:8c:6e:8a:81:77:15:4c:d0:af:08:1d:a2:
        2d:e9:01:4b:d2:a9:7c:69:28:d6:14:38:1d:8a:31:53:c0:12:
        05:23:00:b8:d0:57:7d:68:2a:9e:57:79:65:9a:1f:bd:6f:62:
        f4:1b:27:36
-----BEGIN CERTIFICATE-----
MIIDQzCCAiugAwIBAgIBEDANBgkqhkiG9w0BAQUFADB3MQswCQYDVQQGEwJzZTES
MBAGA1UECAwJc3RvY2tob2xtMQ4wDAYDVQQHDAVraXN0YTEYMBYGA1UECgwPbWFj
cm8gcGhhZ2UgaW5jMQswCQYDVQQLDAJkdTEdMBsGA1UEAwwUZXR4bGcncyBhbHRl
cm5hdGUgY2EwHhcNMTUwMzAyMTYzNDQwWhcNMjgxMTA4MTYzNDQwWjBaMQswCQYD
VQQGEwJzZTESMBAGA1UECAwJc3RvY2tob2xtMRgwFgYDVQQKDA9tYWNybyBwaGFn
ZSBpbmMxDDAKBgNVBAsMA2R1aDEPMA0GA1UEAwwGZXhwZXJ0MIGfMA0GCSqGSIb3
DQEBAQUAA4GNADCBiQKBgQCxLR9TUH8xYO1sPm85CNmNffy4kbsL0iR6lacCSmjR
HdbQen4k0LveqyufUsYhEYp63dsmFr4r8zbsFD4w+jUy27naj0FgDok++njybTUv
yEkjAUQpkHxsfu1iTkGhVTxPKrroveh/xqb3O+Ab9hzpUNQKSYqLTYzjCRuZ8jtM
jQIDAQABo3sweTAJBgNVHRMEAjAAMCwGCWCGSAGG+EIBDQQfFh1PcGVuU1NMIEdl
bmVyYXRlZCBDZXJ0aWZpY2F0ZTAdBgNVHQ4EFgQUqi22Ff2DvSw/JqJKhXopG9Rv
9qowHwYDVR0jBBgwFoAU322b8WQXDkfTxX5OepHo9GS8AKwwDQYJKoZIhvcNAQEF
BQADggEBAGABXs6rtbMW+2HoXJYsTMp0/jduKYRYtUNBl2bLWC1+DosA7vtx8G+s
7JG8NqP+gjCuX+C+P/LiXphZzFoPFdBppoZxEQIKioSKHGzxNa7SFiCcoaiFm0wu
8c6z1At/ccceQz+ppxNgiYg2TDL2pDeGFys5CUt8vayAhS2VclzghO652i7qrfsA
0KU7DfYIcYjD9bPDmwYrvzIj4+oX1LVODvgAxoTaPf5yHEsTY71XrgRY15xbIqgP
uAfRt6SjxB5oyqPP8mc+wDa3fYxuioF3FUzQrwgdoi3pAUvSqXxpKNYUOB2KMVPA
EgUjALjQV31oKp5XeWWaH71vYvQbJzY=
-----END CERTIFICATE-----
