Certificate:
    Data:
        Version: 3 (0x2)
        Serial Number: 67 (0x43)
        Signature Algorithm: sha1WithRSAEncryption
        Issuer: C=se, ST=Stockholm, L=Kista, O=RBS-CS, OU=etxlg's User CA, CN=User CA
        Validity
            Not Before: Jan 15 14:50:50 2014 GMT
            Not After : Sep 24 14:50:50 2027 GMT
        Subject: C=se, ST=Stockholm, O=RBS-CS, OU=User Cert for user:expert, CN=expert
        Subject Public Key Info:
            Public Key Algorithm: rsaEncryption
                Public-Key: (1024 bit)
                Modulus:
                    00:c0:a7:1b:1e:7b:60:4e:b1:93:ac:1b:8d:4a:06:
                    90:a3:b7:67:e2:13:26:91:47:cc:f4:6f:c4:94:7d:
                    23:5b:67:72:cb:a8:03:b1:37:8d:d5:3f:49:78:b2:
                    89:51:7d:24:21:ee:f3:49:c1:d8:e2:01:77:c9:c2:
                    40:38:87:11:90:76:6b:64:f2:ad:63:fc:de:14:11:
                    b7:2c:7c:b2:c5:b6:b9:18:98:23:18:3d:ba:75:c9:
                    df:1b:e2:b3:94:8e:64:d9:2c:36:9a:3b:29:93:db:
                    2a:6f:b4:16:1b:69:1a:c7:d5:9b:85:b0:a0:63:a0:
                    58:ee:83:a1:53:32:d6:4b:b3
                Exponent: 65537 (0x10001)
        X509v3 extensions:
            X509v3 Basic Constraints: 
                CA:FALSE
            Netscape Comment: 
                OpenSSL Generated Certificate
            X509v3 Subject Key Identifier: 
                3E:73:6A:D9:12:FC:D0:FB:D1:F2:77:37:86:ED:A5:8E:7D:01:5D:5E
            X509v3 Authority Key Identifier: 
                keyid:C2:87:76:AA:4C:3E:FB:AA:0B:8D:F9:9F:AD:DD:F8:5F:A8:C3:13:42

    Signature Algorithm: sha1WithRSAEncryption
        8f:49:67:f8:45:26:e3:9c:51:90:3b:02:c5:0d:d8:ff:88:eb:
        bd:65:b8:e8:29:e1:8a:49:51:73:2f:cb:1a:c8:96:b6:71:fa:
        cb:56:4f:3c:60:f5:c2:11:a0:dd:91:6f:ac:ac:03:18:d1:99:
        dc:e2:d8:11:a3:df:be:55:43:32:59:71:aa:77:54:39:27:6b:
        37:ec:34:50:e4:0b:32:c1:4b:40:cf:75:66:d5:a5:9e:f5:c9:
        a4:21:f9:d3:42:40:2d:42:bf:59:78:84:62:1f:12:d3:9f:f5:
        09:b0:d4:f3:19:db:3d:60:2d:76:e6:0a:77:71:c1:d5:84:80:
        af:51:07:e6:6e:e3:9e:f1:b8:1c:51:30:17:96:dd:ec:42:ba:
        d7:af:01:d4:6a:e3:f6:af:58:a5:ac:d6:a4:ae:fd:51:6d:e1:
        03:88:89:f6:4a:56:ae:cc:15:d8:2f:e9:3b:1f:21:0e:1b:85:
        6c:40:30:00:81:e5:e3:05:97:c7:d3:0f:48:b7:fa:03:77:06:
        d6:e7:06:c5:4a:f5:b9:26:37:73:ec:80:dc:86:05:7d:b4:63:
        4a:85:f9:26:57:e1:65:89:02:94:3c:88:f9:09:2d:ab:9f:80:
        93:6c:49:3e:68:5d:29:3b:09:09:b6:26:65:86:22:9f:03:ad:
        6b:e9:eb:ea
-----BEGIN CERTIFICATE-----
MIIDRzCCAi+gAwIBAgIBQzANBgkqhkiG9w0BAQUFADBuMQswCQYDVQQGEwJzZTES
MBAGA1UECAwJU3RvY2tob2xtMQ4wDAYDVQQHDAVLaXN0YTEPMA0GA1UECgwGUkJT
LUNTMRgwFgYDVQQLDA9ldHhsZydzIFVzZXIgQ0ExEDAOBgNVBAMMB1VzZXIgQ0Ew
HhcNMTQwMTE1MTQ1MDUwWhcNMjcwOTI0MTQ1MDUwWjBnMQswCQYDVQQGEwJzZTES
MBAGA1UECAwJU3RvY2tob2xtMQ8wDQYDVQQKDAZSQlMtQ1MxIjAgBgNVBAsMGVVz
ZXIgQ2VydCBmb3IgdXNlcjpleHBlcnQxDzANBgNVBAMMBmV4cGVydDCBnzANBgkq
hkiG9w0BAQEFAAOBjQAwgYkCgYEAwKcbHntgTrGTrBuNSgaQo7dn4hMmkUfM9G/E
lH0jW2dyy6gDsTeN1T9JeLKJUX0kIe7zScHY4gF3ycJAOIcRkHZrZPKtY/zeFBG3
LHyyxba5GJgjGD26dcnfG+KzlI5k2Sw2mjspk9sqb7QWG2kax9WbhbCgY6BY7oOh
UzLWS7MCAwEAAaN7MHkwCQYDVR0TBAIwADAsBglghkgBhvhCAQ0EHxYdT3BlblNT
TCBHZW5lcmF0ZWQgQ2VydGlmaWNhdGUwHQYDVR0OBBYEFD5zatkS/ND70fJ3N4bt
pY59AV1eMB8GA1UdIwQYMBaAFMKHdqpMPvuqC435n63d+F+owxNCMA0GCSqGSIb3
DQEBBQUAA4IBAQCPSWf4RSbjnFGQOwLFDdj/iOu9ZbjoKeGKSVFzL8sayJa2cfrL
Vk88YPXCEaDdkW+srAMY0Znc4tgRo9++VUMyWXGqd1Q5J2s37DRQ5AsywUtAz3Vm
1aWe9cmkIfnTQkAtQr9ZeIRiHxLTn/UJsNTzGds9YC125gp3ccHVhICvUQfmbuOe
8bgcUTAXlt3sQrrXrwHUauP2r1ilrNakrv1RbeEDiIn2SlauzBXYL+k7HyEOG4Vs
QDAAgeXjBZfH0w9It/oDdwbW5wbFSvW5Jjdz7IDchgV9tGNKhfkmV+FliQKUPIj5
CS2rn4CTbEk+aF0pOwkJtiZlhiKfA61r6evq
-----END CERTIFICATE-----
